(lp0
I14
aI7
aI18
aI5
aI18
aI15
aI15
aI15
aI7
aI3
aI18
aI8
aI19
aI12
aI8
aI18
aI6
aI19
aI2
aI7
aI18
aI18
aI2
aI6
aI6
aI8
aI2
aI2
aI10
aI6
aI8
aI7
aI10
aI7
aI6
aI18
aI4
aI12
aI2
aI19
aI3
aI10
aI19
aI10
aI5
aI3
aI16
aI18
aI6
aI12
aI18
aI18
aI3
aI18
aI17
aI2
aI12
aI7
aI4
aI6
aI18
aI17
aI4
aI7
aI8
aI19
aI4
aI15
aI10
aI12
aI10
aI12
aI8
aI7
aI6
aI7
aI15
aI17
aI14
aI16
aI10
aI5
aI18
aI19
aI14
aI5
aI3
aI18
aI8
aI4
aI3
aI2
aI10
aI14
aI16
aI3
aI3
aI10
aI3
aI5
aI2
aI6
aI17
aI18
aI4
aI15
aI14
aI6
aI18
aI19
aI19
aI5
aI7
aI7
aI2
aI10
aI19
aI8
aI6
aI17
aI3
aI16
aI12
aI17
aI5
aI19
aI17
aI5
aI3
aI14
aI16
aI12
aI18
aI10
aI6
aI7
aI19
aI12
aI12
aI18
aI3
aI5
aI3
aI2
aI19
aI8
aI12
aI3
aI7
aI8
aI19
aI14
aI7
aI15
aI12
aI12
aI14
aI3
aI7
aI10
aI15
aI2
aI18
aI12
aI8
aI12
aI8
aI8
aI17
aI15
aI12
aI19
aI6
aI14
aI10
aI5
aI10
aI2
aI3
aI2
aI16
aI7
aI8
aI19
aI10
aI7
aI2
aI7
aI15
aI16
aI18
aI8
aI17
aI18
aI14
aI7
aI4
aI10
aI6
aI18
aI16
aI4
aI2
aI8
aI4
a.