(lp0
I4
aI0
aI14
aI1
aI6
aI3
aI14
aI11
aI1
aI18
aI17
aI9
aI7
aI7
aI14
aI16
aI11
aI4
aI0
aI11
aI9
aI18
aI14
aI0
aI18
aI7
aI17
aI15
aI14
aI16
aI2
aI2
aI16
aI6
aI1
aI17
aI4
aI8
aI16
aI11
aI5
aI11
aI19
aI4
aI13
aI2
aI15
aI16
aI10
aI8
aI2
aI16
aI10
aI19
aI10
aI3
aI16
aI9
aI8
aI9
aI6
aI16
aI5
aI2
aI5
aI19
aI8
aI13
aI15
aI12
aI14
aI17
aI13
aI2
aI16
aI17
aI19
aI10
aI6
aI8
aI15
aI3
aI2
aI9
aI7
aI15
aI5
aI8
aI7
aI15
aI12
aI6
aI0
aI11
aI0
aI19
aI6
aI1
aI19
aI17
aI12
aI10
aI8
aI8
aI16
aI0
aI14
aI19
aI4
aI15
aI16
aI5
aI10
aI12
aI4
aI17
aI0
aI5
aI10
aI16
aI11
aI19
aI3
aI14
aI19
aI18
aI5
aI3
aI7
aI0
aI12
aI11
aI6
aI19
aI17
aI15
aI14
aI8
aI9
aI1
aI8
aI18
aI2
aI1
aI5
aI9
aI17
aI12
aI17
aI12
aI9
aI13
aI1
aI8
aI12
aI0
aI3
aI15
aI8
aI19
aI5
aI1
aI9
aI14
aI19
aI4
aI18
aI15
aI6
aI12
aI14
aI19
aI3
aI7
aI0
aI7
aI1
aI3
aI14
aI1
aI1
aI13
aI13
aI6
aI10
aI15
aI16
aI2
aI5
aI6
aI16
aI18
aI3
aI17
aI11
aI0
aI14
aI12
aI18
aI7
aI15
aI0
aI10
aI14
a.