(lp0
I9
aI12
aI17
aI8
aI13
aI18
aI8
aI9
aI9
aI15
aI7
aI18
aI4
aI19
aI15
aI11
aI8
aI1
aI17
aI9
aI11
aI11
aI9
aI0
aI6
aI1
aI15
aI4
aI13
aI3
aI2
aI13
aI6
aI12
aI3
aI3
aI16
aI18
aI7
aI4
aI11
aI5
aI0
aI18
aI1
aI13
aI0
aI17
aI7
aI3
aI18
aI18
aI14
aI13
aI17
aI7
aI14
aI6
aI5
aI18
aI18
aI12
aI14
aI2
aI9
aI7
aI15
aI14
aI14
aI15
aI17
aI10
aI4
aI1
aI15
aI0
aI16
aI9
aI6
aI13
aI18
aI11
aI11
aI3
aI1
aI3
aI6
aI4
aI17
aI7
aI16
aI1
aI14
aI0
aI5
aI17
aI4
aI4
aI11
aI5
aI13
aI5
aI14
aI15
aI7
aI11
aI18
aI18
aI2
aI1
aI6
aI11
aI14
aI3
aI3
aI15
aI8
aI13
aI6
aI0
aI19
aI11
aI7
aI10
aI15
aI16
aI0
aI18
aI4
aI14
aI11
aI7
aI3
aI0
aI0
aI7
aI11
aI16
aI13
aI8
aI18
aI7
aI9
aI17
aI11
aI7
aI16
aI18
aI19
aI12
aI5
aI3
aI8
aI19
aI6
aI11
aI7
aI17
aI16
aI10
aI8
aI8
aI10
aI12
aI10
aI8
aI4
aI3
aI10
aI5
aI15
aI6
aI5
aI3
aI6
aI13
aI3
aI14
aI16
aI4
aI7
aI13
aI2
aI7
aI0
aI12
aI11
aI6
aI8
aI3
aI15
aI8
aI19
aI18
aI9
aI3
aI10
aI15
aI17
aI0
aI14
aI5
aI6
aI15
aI6
aI9
aI9
aI13
aI14
aI5
aI5
aI15
a.